cnumpy.core.multiarray
_reconstruct
p0
(cnumpy
ndarray
p1
(I0
tp2
S'b'
p3
tp4
Rp5
(I1
(I3
tp6
cnumpy
dtype
p7
(S'f8'
p8
I0
I1
tp9
Rp10
(I3
S'<'
p11
NNNI-1
I-1
I0
tp12
bI00
S'\x9f\x9a\xcb\xc6\x8c=\x18@\x83p,\x81B\x0b\x03\xc0}\xa2\x1dCS\x80\xc8?'
p13
tp14
b.